target datalayout = "e-m:e-p270:32:32-p271:32:32-p272:64:64-i64:64-i128:128-f80:128-n8:16:32:64-S128"
target triple = "x86_64-unknown-linux-gnu"

%"class.std::basic_string_view" = type { i64, ptr }
%"class.std::__cxx11::basic_string" = type { %"struct.std::__cxx11::basic_string<char>::_Alloc_hider", i64, %union.anon }
%"struct.std::__cxx11::basic_string<char>::_Alloc_hider" = type { ptr }
%union.anon = type { i64, [8 x i8] }
%"class.std::filesystem::__cxx11::path" = type { %"class.std::__cxx11::basic_string", %"struct.std::filesystem::__cxx11::path::_List" }
%"struct.std::filesystem::__cxx11::path::_List" = type { %"class.std::unique_ptr.59" }
%"class.std::unique_ptr.59" = type { %"struct.std::__uniq_ptr_data.60" }
%"struct.std::__uniq_ptr_data.60" = type { %"class.std::__uniq_ptr_impl.61" }
%"class.std::__uniq_ptr_impl.61" = type { %"class.std::tuple.62" }
%"class.std::tuple.62" = type { %"struct.std::_Tuple_impl.63" }
%"struct.std::_Tuple_impl.63" = type { %"struct.std::_Head_base.66" }
%"struct.std::_Head_base.66" = type { ptr }
%"class.google::LogMessageVoidify" = type { i8 }
%"class.google::LogMessage" = type { ptr, ptr }
%"class.std::error_code" = type { i32, ptr }

@_ZN6google21kLogSiteUninitializedE = external global i32, align 4
@_ZN3fLI7FLAGS_vE = external global i32, align 4
@.str.6 = private unnamed_addr constant [123 x i8] c"generated/home/dtcxzyw/WorkSpace/Projects/compilers/llvm-opt-benchmark/bench/velox/velox/velox/common/file/FileSystems.cpp\00", align 1
@_ZZN8facebook5velox11filesystems12_GLOBAL__N_115LocalFileSystem5mkdirESt17basic_string_viewIcSt11char_traitsIcEEE8vlocal__ = internal global ptr @_ZN6google21kLogSiteUninitializedE, align 8
@.str.11 = private unnamed_addr constant [24 x i8] c"LocalFileSystem::mkdir \00", align 1

; Function Attrs: mustprogress nounwind uwtable
define linkonce_odr noundef i64 @_ZNKSt17basic_string_viewIcSt11char_traitsIcEE4sizeEv(ptr noundef nonnull align 8 dereferenceable(16) %this) #1 comdat align 2 {
entry:
  %this.addr = alloca ptr, align 8
  store ptr %this, ptr %this.addr, align 8
  %this1 = load ptr, ptr %this.addr, align 8
  %_M_len = getelementptr inbounds %"class.std::basic_string_view", ptr %this1, i32 0, i32 0
  %0 = load i64, ptr %_M_len, align 8
  ret i64 %0
}

; Function Attrs: mustprogress nounwind uwtable
define linkonce_odr noundef ptr @_ZNKSt17basic_string_viewIcSt11char_traitsIcEE4dataEv(ptr noundef nonnull align 8 dereferenceable(16) %this) #1 comdat align 2 {
entry:
  %this.addr = alloca ptr, align 8
  store ptr %this, ptr %this.addr, align 8
  %this1 = load ptr, ptr %this.addr, align 8
  %_M_str = getelementptr inbounds %"class.std::basic_string_view", ptr %this1, i32 0, i32 1
  %0 = load ptr, ptr %_M_str, align 8
  ret ptr %0
}

; Function Attrs: mustprogress nounwind uwtable
define linkonce_odr void @_ZN6google17LogMessageVoidifyanERSo(ptr noundef nonnull align 1 dereferenceable(1) %this, ptr noundef nonnull align 8 dereferenceable(8) %0) #1 comdat align 2 {
entry:
  %this.addr = alloca ptr, align 8
  %.addr = alloca ptr, align 8
  store ptr %this, ptr %this.addr, align 8
  store ptr %0, ptr %.addr, align 8
  ret void
}

; Function Attrs: mustprogress uwtable
define linkonce_odr noundef nonnull align 8 dereferenceable(8) ptr @_ZStlsIcSt11char_traitsIcEERSt13basic_ostreamIT_T0_ES6_St17basic_string_viewIS3_S4_E(ptr noundef nonnull align 8 dereferenceable(8) %__os, i64 %__str.coerce0, ptr %__str.coerce1) #0 comdat {
entry:
  %__str = alloca %"class.std::basic_string_view", align 8
  %__os.addr = alloca ptr, align 8
  %0 = getelementptr inbounds { i64, ptr }, ptr %__str, i32 0, i32 0
  store i64 %__str.coerce0, ptr %0, align 8
  %1 = getelementptr inbounds { i64, ptr }, ptr %__str, i32 0, i32 1
  store ptr %__str.coerce1, ptr %1, align 8
  store ptr %__os, ptr %__os.addr, align 8
  %2 = load ptr, ptr %__os.addr, align 8
  %call = call noundef ptr @_ZNKSt17basic_string_viewIcSt11char_traitsIcEE4dataEv(ptr noundef nonnull align 8 dereferenceable(16) %__str) #5
  %call1 = call noundef i64 @_ZNKSt17basic_string_viewIcSt11char_traitsIcEE4sizeEv(ptr noundef nonnull align 8 dereferenceable(16) %__str) #5
  %call2 = call noundef nonnull align 8 dereferenceable(8) ptr @_ZSt16__ostream_insertIcSt11char_traitsIcEERSt13basic_ostreamIT_T0_ES6_PKS3_l(ptr noundef nonnull align 8 dereferenceable(8) %2, ptr noundef %call, i64 noundef %call1)
  ret ptr %call2
}

; Function Attrs: mustprogress nounwind uwtable
define linkonce_odr void @_ZN6google17LogMessageVoidifyC2Ev(ptr noundef nonnull align 1 dereferenceable(1) %this) unnamed_addr #1 comdat align 2 {
entry:
  %this.addr = alloca ptr, align 8
  store ptr %this, ptr %this.addr, align 8
  ret void
}

; Function Attrs: mustprogress nounwind uwtable
define linkonce_odr noundef i32 @_ZNKSt10error_code5valueEv(ptr noundef nonnull align 8 dereferenceable(16) %this) #1 comdat align 2 {
entry:
  %this.addr = alloca ptr, align 8
  store ptr %this, ptr %this.addr, align 8
  %this1 = load ptr, ptr %this.addr, align 8
  %_M_value = getelementptr inbounds %"class.std::error_code", ptr %this1, i32 0, i32 0
  %0 = load i32, ptr %_M_value, align 8
  ret i32 %0
}

; Function Attrs: mustprogress nounwind uwtable
define linkonce_odr void @_ZNSt10error_codeC2Ev(ptr noundef nonnull align 8 dereferenceable(16) %this) unnamed_addr #1 comdat align 2 {
entry:
  %this.addr = alloca ptr, align 8
  store ptr %this, ptr %this.addr, align 8
  %this1 = load ptr, ptr %this.addr, align 8
  %_M_value = getelementptr inbounds %"class.std::error_code", ptr %this1, i32 0, i32 0
  store i32 0, ptr %_M_value, align 8
  %_M_cat = getelementptr inbounds %"class.std::error_code", ptr %this1, i32 0, i32 1
  %call = call noundef nonnull align 8 dereferenceable(8) ptr @_ZNSt3_V215system_categoryEv() #18
  store ptr %call, ptr %_M_cat, align 8
  ret void
}

; Function Attrs: mustprogress uwtable
define internal void @_ZN8facebook5velox11filesystems12_GLOBAL__N_115LocalFileSystem5mkdirESt17basic_string_viewIcSt11char_traitsIcEE(ptr noundef nonnull align 8 dereferenceable(24) %this, i64 %path.coerce0, ptr %path.coerce1) unnamed_addr #0 align 2 personality ptr @__gxx_personality_v0 {
entry:
  %path = alloca %"class.std::basic_string_view", align 8
  %this.addr = alloca ptr, align 8
  %ec = alloca %"class.std::error_code", align 8
  %ref.tmp = alloca %"class.std::filesystem::__cxx11::path", align 8
  %exn.slot = alloca ptr, align 8
  %ehselector.slot = alloca i32, align 4
  %verbose_level__ = alloca i32, align 4
  %tmp = alloca i8, align 1
  %ref.tmp6 = alloca %"class.google::LogMessageVoidify", align 1
  %ref.tmp7 = alloca %"class.google::LogMessage", align 8
  %cleanup.cond = alloca i1, align 1
  %agg.tmp = alloca %"class.std::basic_string_view", align 8
  %0 = getelementptr inbounds { i64, ptr }, ptr %path, i32 0, i32 0
  store i64 %path.coerce0, ptr %0, align 8
  %1 = getelementptr inbounds { i64, ptr }, ptr %path, i32 0, i32 1
  store ptr %path.coerce1, ptr %1, align 8
  store ptr %this, ptr %this.addr, align 8
  call void @_ZNSt10error_codeC2Ev(ptr noundef nonnull align 8 dereferenceable(16) %ec) #5
  call void @_ZNSt10filesystem7__cxx114pathC2ISt17basic_string_viewIcSt11char_traitsIcEES1_EERKT_NS1_6formatE(ptr noundef nonnull align 8 dereferenceable(40) %ref.tmp, ptr noundef nonnull align 8 dereferenceable(16) %path, i8 noundef zeroext 2)
  %call = invoke noundef zeroext i1 @_ZNSt10filesystem18create_directoriesERKNS_7__cxx114pathERSt10error_code(ptr noundef nonnull align 8 dereferenceable(40) %ref.tmp, ptr noundef nonnull align 8 dereferenceable(16) %ec)
          to label %invoke.cont unwind label %lpad

invoke.cont:                                      ; preds = %entry
  call void @_ZNSt10filesystem7__cxx114pathD2Ev(ptr noundef nonnull align 8 dereferenceable(40) %ref.tmp) #5
  %call2 = call noundef i32 @_ZNKSt10error_code5valueEv(ptr noundef nonnull align 8 dereferenceable(16) %ec) #5
  %cmp = icmp eq i32 0, %call2
  %lnot = xor i1 %cmp, true
  br i1 %lnot, label %if.then, label %if.end

if.then:                                          ; preds = %invoke.cont
  call void @llvm.trap()
  br label %if.end

lpad:                                             ; preds = %entry
  %2 = landingpad { ptr, i32 }
          cleanup
  %3 = extractvalue { ptr, i32 } %2, 0
  store ptr %3, ptr %exn.slot, align 8
  %4 = extractvalue { ptr, i32 } %2, 1
  store i32 %4, ptr %ehselector.slot, align 4
  call void @_ZNSt10filesystem7__cxx114pathD2Ev(ptr noundef nonnull align 8 dereferenceable(40) %ref.tmp) #5
  br label %eh.resume

if.end:                                           ; preds = %if.then, %invoke.cont
  store i32 1, ptr %verbose_level__, align 4
  %5 = load ptr, ptr @_ZZN8facebook5velox11filesystems12_GLOBAL__N_115LocalFileSystem5mkdirESt17basic_string_viewIcSt11char_traitsIcEEE8vlocal__, align 8
  %6 = load i32, ptr %5, align 4
  %7 = load i32, ptr %verbose_level__, align 4
  %cmp3 = icmp sge i32 %6, %7
  store i1 false, ptr %cleanup.cond, align 1
  br i1 %cmp3, label %land.rhs, label %land.end

land.rhs:                                         ; preds = %if.end
  %8 = load ptr, ptr @_ZZN8facebook5velox11filesystems12_GLOBAL__N_115LocalFileSystem5mkdirESt17basic_string_viewIcSt11char_traitsIcEEE8vlocal__, align 8
  %cmp4 = icmp ne ptr %8, @_ZN6google21kLogSiteUninitializedE
  br i1 %cmp4, label %lor.end, label %lor.rhs

lor.rhs:                                          ; preds = %land.rhs
  %9 = load i32, ptr %verbose_level__, align 4
  %call5 = call noundef zeroext i1 @_ZN6google11InitVLOG3__EPPiS0_PKci(ptr noundef @_ZZN8facebook5velox11filesystems12_GLOBAL__N_115LocalFileSystem5mkdirESt17basic_string_viewIcSt11char_traitsIcEEE8vlocal__, ptr noundef @_ZN3fLI7FLAGS_vE, ptr noundef @.str.6, i32 noundef %9)
  br label %lor.end

lor.end:                                          ; preds = %lor.rhs, %land.rhs
  %10 = phi i1 [ true, %land.rhs ], [ %call5, %lor.rhs ]
  br label %land.end

land.end:                                         ; preds = %lor.end, %if.end
  %11 = phi i1 [ false, %if.end ], [ %10, %lor.end ]
  %frombool = zext i1 %11 to i8
  store i8 %frombool, ptr %tmp, align 1
  %12 = load i8, ptr %tmp, align 1
  %tobool = trunc i8 %12 to i1
  br i1 %tobool, label %cond.false, label %cond.true

cond.true:                                        ; preds = %land.end
  br label %cond.end

cond.false:                                       ; preds = %land.end
  call void @_ZN6google17LogMessageVoidifyC2Ev(ptr noundef nonnull align 1 dereferenceable(1) %ref.tmp6)
  call void @_ZN6google10LogMessageC1EPKci(ptr noundef nonnull align 8 dereferenceable(16) %ref.tmp7, ptr noundef @.str.6, i32 noundef 161)
  store i1 true, ptr %cleanup.cond, align 1
  %call10 = invoke noundef nonnull align 8 dereferenceable(8) ptr @_ZN6google10LogMessage6streamEv(ptr noundef nonnull align 8 dereferenceable(16) %ref.tmp7)
          to label %invoke.cont9 unwind label %lpad8

invoke.cont9:                                     ; preds = %cond.false
  %call12 = invoke noundef nonnull align 8 dereferenceable(8) ptr @_ZStlsISt11char_traitsIcEERSt13basic_ostreamIcT_ES5_PKc(ptr noundef nonnull align 8 dereferenceable(8) %call10, ptr noundef @.str.11)
          to label %invoke.cont11 unwind label %lpad8

invoke.cont11:                                    ; preds = %invoke.cont9
  call void @llvm.memcpy.p0.p0.i64(ptr align 8 %agg.tmp, ptr align 8 %path, i64 16, i1 false)
  %13 = getelementptr inbounds { i64, ptr }, ptr %agg.tmp, i32 0, i32 0
  %14 = load i64, ptr %13, align 8
  %15 = getelementptr inbounds { i64, ptr }, ptr %agg.tmp, i32 0, i32 1
  %16 = load ptr, ptr %15, align 8
  %call14 = invoke noundef nonnull align 8 dereferenceable(8) ptr @_ZStlsIcSt11char_traitsIcEERSt13basic_ostreamIT_T0_ES6_St17basic_string_viewIS3_S4_E(ptr noundef nonnull align 8 dereferenceable(8) %call12, i64 %14, ptr %16)
          to label %invoke.cont13 unwind label %lpad8

invoke.cont13:                                    ; preds = %invoke.cont11
  call void @_ZN6google17LogMessageVoidifyanERSo(ptr noundef nonnull align 1 dereferenceable(1) %ref.tmp6, ptr noundef nonnull align 8 dereferenceable(8) %call14)
  br label %cond.end

cond.end:                                         ; preds = %invoke.cont13, %cond.true
  %cleanup.is_active = load i1, ptr %cleanup.cond, align 1
  br i1 %cleanup.is_active, label %cleanup.action, label %cleanup.done

cleanup.action:                                   ; preds = %cond.end
  call void @_ZN6google10LogMessageD1Ev(ptr noundef nonnull align 8 dereferenceable(16) %ref.tmp7) #5
  br label %cleanup.done

cleanup.done:                                     ; preds = %cleanup.action, %cond.end
  ret void

lpad8:                                            ; preds = %invoke.cont11, %invoke.cont9, %cond.false
  %17 = landingpad { ptr, i32 }
          cleanup
  %18 = extractvalue { ptr, i32 } %17, 0
  store ptr %18, ptr %exn.slot, align 8
  %19 = extractvalue { ptr, i32 } %17, 1
  store i32 %19, ptr %ehselector.slot, align 4
  %cleanup.is_active15 = load i1, ptr %cleanup.cond, align 1
  br i1 %cleanup.is_active15, label %cleanup.action16, label %cleanup.done17

cleanup.action16:                                 ; preds = %lpad8
  call void @_ZN6google10LogMessageD1Ev(ptr noundef nonnull align 8 dereferenceable(16) %ref.tmp7) #5
  br label %cleanup.done17

cleanup.done17:                                   ; preds = %cleanup.action16, %lpad8
  br label %eh.resume

eh.resume:                                        ; preds = %cleanup.done17, %lpad
  %exn = load ptr, ptr %exn.slot, align 8
  %sel = load i32, ptr %ehselector.slot, align 4
  %lpad.val = insertvalue { ptr, i32 } poison, ptr %exn, 0
  %lpad.val18 = insertvalue { ptr, i32 } %lpad.val, i32 %sel, 1
  resume { ptr, i32 } %lpad.val18
}