; Function Attrs: mustprogress uwtable
define internal void @_ZN8facebook5velox11filesystems12_GLOBAL__N_115LocalFileSystem5mkdirESt17basic_string_viewIcSt11char_traitsIcEE(ptr nocapture nonnull readnone align 8 %this, i64 %path.coerce0, ptr %path.coerce1) unnamed_addr #0 align 2 personality ptr @__gxx_personality_v0 {
entry:
  %path = alloca %"class.std::basic_string_view", align 8
  %ec = alloca %"class.std::error_code", align 8
  %ref.tmp = alloca %"class.std::filesystem::__cxx11::path", align 8
  %ref.tmp7 = alloca %"class.google::LogMessage", align 8
  store i64 %path.coerce0, ptr %path, align 8
  %0 = getelementptr inbounds i8, ptr %path, i64 8
  store ptr %path.coerce1, ptr %0, align 8
  store i32 0, ptr %ec, align 8
  %_M_cat.i = getelementptr inbounds i8, ptr %ec, i64 8
  %call.i = tail call noundef nonnull align 8 dereferenceable(8) ptr @_ZNSt3_V215system_categoryEv() #28
  store ptr %call.i, ptr %_M_cat.i, align 8
  call void @_ZNSt10filesystem7__cxx114pathC2ISt17basic_string_viewIcSt11char_traitsIcEES1_EERKT_NS1_6formatE(ptr noundef nonnull align 8 dereferenceable(40) %ref.tmp, ptr noundef nonnull align 8 dereferenceable(16) %path, i8 noundef zeroext 2)
  %call = invoke noundef zeroext i1 @_ZNSt10filesystem18create_directoriesERKNS_7__cxx114pathERSt10error_code(ptr noundef nonnull align 8 dereferenceable(40) %ref.tmp, ptr noundef nonnull align 8 dereferenceable(16) %ec)
          to label %invoke.cont unwind label %lpad

invoke.cont:                                      ; preds = %entry
  %_M_cmpts.i = getelementptr inbounds i8, ptr %ref.tmp, i64 32
  %1 = load ptr, ptr %_M_cmpts.i, align 8
  %cmp.not.i.i.i = icmp eq ptr %1, null
  br i1 %cmp.not.i.i.i, label %_ZNSt10filesystem7__cxx114pathD2Ev.exit, label %if.then.i.i.i

if.then.i.i.i:                                    ; preds = %invoke.cont
  call void @_ZNKSt10filesystem7__cxx114path5_List13_Impl_deleterclEPNS2_5_ImplE(ptr noundef nonnull align 1 dereferenceable(1) %_M_cmpts.i, ptr noundef nonnull %1) #23
  br label %_ZNSt10filesystem7__cxx114pathD2Ev.exit

_ZNSt10filesystem7__cxx114pathD2Ev.exit:          ; preds = %invoke.cont, %if.then.i.i.i
  store ptr null, ptr %_M_cmpts.i, align 8
  call void @_ZNSt7__cxx1112basic_stringIcSt11char_traitsIcESaIcEED1Ev(ptr noundef nonnull align 8 dereferenceable(32) %ref.tmp) #23
  %2 = load i32, ptr %ec, align 8
  %cmp.not = icmp eq i32 %2, 0
  br i1 %cmp.not, label %if.end, label %if.then

if.then:                                          ; preds = %_ZNSt10filesystem7__cxx114pathD2Ev.exit
  call void @llvm.trap()
  unreachable

lpad:                                             ; preds = %entry
  %3 = landingpad { ptr, i32 }
          cleanup
  call void @_ZNSt10filesystem7__cxx114pathD2Ev(ptr noundef nonnull align 8 dereferenceable(40) %ref.tmp) #23
  br label %eh.resume

if.end:                                           ; preds = %_ZNSt10filesystem7__cxx114pathD2Ev.exit
  %4 = load ptr, ptr @_ZZN8facebook5velox11filesystems12_GLOBAL__N_115LocalFileSystem5mkdirESt17basic_string_viewIcSt11char_traitsIcEEE8vlocal__, align 8
  %5 = load i32, ptr %4, align 4
  %cmp3 = icmp sgt i32 %5, 0
  br i1 %cmp3, label %land.rhs, label %cleanup.done

land.rhs:                                         ; preds = %if.end
  %cmp4.not = icmp eq ptr %4, @_ZN6google21kLogSiteUninitializedE
  br i1 %cmp4.not, label %land.end, label %cond.false

land.end:                                         ; preds = %land.rhs
  %call5 = call noundef zeroext i1 @_ZN6google11InitVLOG3__EPPiS0_PKci(ptr noundef nonnull @_ZZN8facebook5velox11filesystems12_GLOBAL__N_115LocalFileSystem5mkdirESt17basic_string_viewIcSt11char_traitsIcEEE8vlocal__, ptr noundef nonnull @_ZN3fLI7FLAGS_vE, ptr noundef nonnull @.str.6, i32 noundef 1)
  br i1 %call5, label %cond.false, label %cleanup.done

cond.false:                                       ; preds = %land.rhs, %land.end
  call void @_ZN6google10LogMessageC1EPKci(ptr noundef nonnull align 8 dereferenceable(16) %ref.tmp7, ptr noundef nonnull @.str.6, i32 noundef 161)
  %call10 = invoke noundef nonnull align 8 dereferenceable(8) ptr @_ZN6google10LogMessage6streamEv(ptr noundef nonnull align 8 dereferenceable(16) %ref.tmp7)
          to label %invoke.cont9 unwind label %lpad8

invoke.cont9:                                     ; preds = %cond.false
  %call12 = invoke noundef nonnull align 8 dereferenceable(8) ptr @_ZStlsISt11char_traitsIcEERSt13basic_ostreamIcT_ES5_PKc(ptr noundef nonnull align 8 dereferenceable(8) %call10, ptr noundef nonnull @.str.11)
          to label %invoke.cont11 unwind label %lpad8

invoke.cont11:                                    ; preds = %invoke.cont9
  %agg.tmp.sroa.0.0.copyload = load i64, ptr %path, align 8
  %agg.tmp.sroa.2.0.copyload = load ptr, ptr %0, align 8
  %call2.i3 = invoke noundef nonnull align 8 dereferenceable(8) ptr @_ZSt16__ostream_insertIcSt11char_traitsIcEERSt13basic_ostreamIT_T0_ES6_PKS3_l(ptr noundef nonnull align 8 dereferenceable(8) %call12, ptr noundef %agg.tmp.sroa.2.0.copyload, i64 noundef %agg.tmp.sroa.0.0.copyload)
          to label %cleanup.action unwind label %lpad8

cleanup.action:                                   ; preds = %invoke.cont11
  call void @_ZN6google10LogMessageD1Ev(ptr noundef nonnull align 8 dereferenceable(16) %ref.tmp7) #23
  br label %cleanup.done

cleanup.done:                                     ; preds = %if.end, %land.end, %cleanup.action
  ret void

lpad8:                                            ; preds = %invoke.cont11, %invoke.cont9, %cond.false
  %6 = landingpad { ptr, i32 }
          cleanup
  call void @_ZN6google10LogMessageD1Ev(ptr noundef nonnull align 8 dereferenceable(16) %ref.tmp7) #23
  br label %eh.resume

eh.resume:                                        ; preds = %lpad8, %lpad
  %.pn = phi { ptr, i32 } [ %6, %lpad8 ], [ %3, %lpad ]
  resume { ptr, i32 } %.pn
}